; Function Attrs: mustprogress nounwind uwtable
define dso_local void @_ZN5clang6driver5tools15addPathIfExistsERKNS0_6DriverERKN4llvm5TwineERNS5_11SmallVectorINSt7__cxx1112basic_stringIcSt11char_traitsIcESaIcEEELj16EEE(ptr noundef nonnull readonly align 8 captures(none) dereferenceable(1192) %0, ptr noundef nonnull align 8 dereferenceable(34) %1, ptr noundef nonnull align 8 dereferenceable(528) %2) local_unnamed_addr #0 {
  %4 = alloca %"class.std::__cxx11::basic_string", align 8
  %5 = getelementptr inbounds nuw i8, ptr %0, i64 8
  %6 = load ptr, ptr %5, align 8
  %7 = load ptr, ptr %6, align 8
  %8 = getelementptr inbounds nuw i8, ptr %7, i64 88
  %9 = load ptr, ptr %8, align 8
  %10 = tail call noundef zeroext i1 %9(ptr noundef nonnull align 8 dereferenceable(12) %6, ptr noundef nonnull align 8 dereferenceable(34) %1) #21
  br i1 %10, label %11, label %12

11:                                               ; preds = %3
  call void @_ZNK4llvm5Twine3strB5cxx11Ev(ptr dead_on_unwind nonnull writable sret(%"class.std::__cxx11::basic_string") align 8 %4, ptr noundef nonnull align 8 dereferenceable(34) %1) #21
  call void @_ZN4llvm23SmallVectorTemplateBaseINSt7__cxx1112basic_stringIcSt11char_traitsIcESaIcEEELb0EE9push_backEOS6_(ptr noundef nonnull align 8 dereferenceable(16) %2, ptr noundef nonnull align 8 dereferenceable(32) %4)
  call void @_ZNSt7__cxx1112basic_stringIcSt11char_traitsIcESaIcEED1Ev(ptr noundef nonnull align 8 dereferenceable(32) %4) #21
  br label %12

12:                                               ; preds = %11, %3
  ret void
}